target datalayout = "e-m:e-p270:32:32-p271:32:32-p272:64:64-i64:64-i128:128-f80:128-n8:16:32:64-S128"
target triple = "x86_64-pc-linux-gnu"

%struct.TuplesortPublic = type { ptr, ptr, ptr, ptr, ptr, ptr, ptr, ptr, ptr, i8, i32, ptr, ptr, i32, i8, ptr }
%struct.HeapTupleData = type { i32, %struct.ItemPointerData, i32, ptr }
%struct.ItemPointerData = type { %struct.BlockIdData, i16 }
%struct.BlockIdData = type { i16, i16 }
%struct.SortTuple = type { ptr, i64, i8, i32 }
%struct.TuplesortClusterArg = type { ptr, ptr, ptr }
%struct.IndexInfo = type { i32, i32, i32, [32 x i16], ptr, ptr, ptr, ptr, ptr, ptr, ptr, ptr, ptr, ptr, i8, i8, i8, i8, i8, i8, i8, i8, i8, i32, i32, ptr, ptr }

@.str.1 = private unnamed_addr constant [20 x i8] c"tuplesortvariants.c\00", align 1
@.str.8 = private unnamed_addr constant [23 x i8] c"unexpected end of data\00", align 1
@__func__.readtup_cluster = private unnamed_addr constant [16 x i8] c"readtup_cluster\00", align 1

; Function Attrs: nounwind uwtable
define internal void @readtup_cluster(ptr noundef %0, ptr noundef %1, ptr noundef %2, i32 noundef %3) #0 {
  %5 = alloca ptr, align 8
  %6 = alloca ptr, align 8
  %7 = alloca ptr, align 8
  %8 = alloca i32, align 4
  %9 = alloca ptr, align 8
  %10 = alloca ptr, align 8
  %11 = alloca i32, align 4
  %12 = alloca ptr, align 8
  store ptr %0, ptr %5, align 8
  store ptr %1, ptr %6, align 8
  store ptr %2, ptr %7, align 8
  store i32 %3, ptr %8, align 4
  call void @llvm.lifetime.start.p0(i64 8, ptr %9) #6
  %13 = load ptr, ptr %5, align 8
  store ptr %13, ptr %9, align 8
  call void @llvm.lifetime.start.p0(i64 8, ptr %10) #6
  %14 = load ptr, ptr %9, align 8
  %15 = getelementptr inbounds nuw %struct.TuplesortPublic, ptr %14, i32 0, i32 15
  %16 = load ptr, ptr %15, align 8
  store ptr %16, ptr %10, align 8
  call void @llvm.lifetime.start.p0(i64 4, ptr %11) #6
  %17 = load i32, ptr %8, align 4
  %18 = zext i32 %17 to i64
  %19 = sub i64 %18, 6
  %20 = sub i64 %19, 4
  %21 = trunc i64 %20 to i32
  store i32 %21, ptr %11, align 4
  call void @llvm.lifetime.start.p0(i64 8, ptr %12) #6
  %22 = load ptr, ptr %5, align 8
  %23 = load i32, ptr %11, align 4
  %24 = zext i32 %23 to i64
  %25 = add i64 %24, 24
  %26 = call ptr @tuplesort_readtup_alloc(ptr noundef %22, i64 noundef %25)
  store ptr %26, ptr %12, align 8
  %27 = load ptr, ptr %12, align 8
  %28 = getelementptr inbounds nuw i8, ptr %27, i64 24
  %29 = load ptr, ptr %12, align 8
  %30 = getelementptr inbounds nuw %struct.HeapTupleData, ptr %29, i32 0, i32 3
  store ptr %28, ptr %30, align 8
  %31 = load i32, ptr %11, align 4
  %32 = load ptr, ptr %12, align 8
  %33 = getelementptr inbounds nuw %struct.HeapTupleData, ptr %32, i32 0, i32 0
  store i32 %31, ptr %33, align 8
  br label %34

34:                                               ; preds = %4
  %35 = load ptr, ptr %7, align 8
  %36 = load ptr, ptr %12, align 8
  %37 = getelementptr inbounds nuw %struct.HeapTupleData, ptr %36, i32 0, i32 1
  %38 = call i64 @LogicalTapeRead(ptr noundef %35, ptr noundef %37, i64 noundef 6)
  %39 = icmp ne i64 %38, 6
  br i1 %39, label %40, label %51

40:                                               ; preds = %34
  br label %41

41:                                               ; preds = %40
  br i1 true, label %42, label %44

42:                                               ; preds = %41
  %43 = call zeroext i1 @errstart_cold(i32 noundef 21, ptr noundef null) #7
  br i1 %43, label %46, label %48

44:                                               ; preds = %41
  %45 = call zeroext i1 @errstart(i32 noundef 21, ptr noundef null)
  br i1 %45, label %46, label %48

46:                                               ; preds = %44, %42
  %47 = call i32 (ptr, ...) @errmsg_internal(ptr noundef @.str.8)
  call void @errfinish(ptr noundef @.str.1, i32 noundef 1368, ptr noundef @__func__.readtup_cluster)
  br label %48

48:                                               ; preds = %46, %44, %42
  unreachable

49:                                               ; No predecessors!
  br label %50

50:                                               ; preds = %49
  br label %51

51:                                               ; preds = %50, %34
  br label %52

52:                                               ; preds = %51
  br label %53

53:                                               ; preds = %52
  %54 = load ptr, ptr %12, align 8
  %55 = getelementptr inbounds nuw %struct.HeapTupleData, ptr %54, i32 0, i32 2
  store i32 0, ptr %55, align 4
  br label %56

56:                                               ; preds = %53
  %57 = load ptr, ptr %7, align 8
  %58 = load ptr, ptr %12, align 8
  %59 = getelementptr inbounds nuw %struct.HeapTupleData, ptr %58, i32 0, i32 3
  %60 = load ptr, ptr %59, align 8
  %61 = load ptr, ptr %12, align 8
  %62 = getelementptr inbounds nuw %struct.HeapTupleData, ptr %61, i32 0, i32 0
  %63 = load i32, ptr %62, align 8
  %64 = zext i32 %63 to i64
  %65 = call i64 @LogicalTapeRead(ptr noundef %57, ptr noundef %60, i64 noundef %64)
  %66 = load ptr, ptr %12, align 8
  %67 = getelementptr inbounds nuw %struct.HeapTupleData, ptr %66, i32 0, i32 0
  %68 = load i32, ptr %67, align 8
  %69 = zext i32 %68 to i64
  %70 = icmp ne i64 %65, %69
  br i1 %70, label %71, label %82

71:                                               ; preds = %56
  br label %72

72:                                               ; preds = %71
  br i1 true, label %73, label %75

73:                                               ; preds = %72
  %74 = call zeroext i1 @errstart_cold(i32 noundef 21, ptr noundef null) #7
  br i1 %74, label %77, label %79

75:                                               ; preds = %72
  %76 = call zeroext i1 @errstart(i32 noundef 21, ptr noundef null)
  br i1 %76, label %77, label %79

77:                                               ; preds = %75, %73
  %78 = call i32 (ptr, ...) @errmsg_internal(ptr noundef @.str.8)
  call void @errfinish(ptr noundef @.str.1, i32 noundef 1372, ptr noundef @__func__.readtup_cluster)
  br label %79

79:                                               ; preds = %77, %75, %73
  unreachable

80:                                               ; No predecessors!
  br label %81

81:                                               ; preds = %80
  br label %82

82:                                               ; preds = %81, %56
  br label %83

83:                                               ; preds = %82
  br label %84

84:                                               ; preds = %83
  %85 = load ptr, ptr %9, align 8
  %86 = getelementptr inbounds nuw %struct.TuplesortPublic, ptr %85, i32 0, i32 13
  %87 = load i32, ptr %86, align 8
  %88 = and i32 %87, 1
  %89 = icmp ne i32 %88, 0
  br i1 %89, label %90, label %109

90:                                               ; preds = %84
  br label %91

91:                                               ; preds = %90
  %92 = load ptr, ptr %7, align 8
  %93 = call i64 @LogicalTapeRead(ptr noundef %92, ptr noundef %8, i64 noundef 4)
  %94 = icmp ne i64 %93, 4
  br i1 %94, label %95, label %106

95:                                               ; preds = %91
  br label %96

96:                                               ; preds = %95
  br i1 true, label %97, label %99

97:                                               ; preds = %96
  %98 = call zeroext i1 @errstart_cold(i32 noundef 21, ptr noundef null) #7
  br i1 %98, label %101, label %103

99:                                               ; preds = %96
  %100 = call zeroext i1 @errstart(i32 noundef 21, ptr noundef null)
  br i1 %100, label %101, label %103

101:                                              ; preds = %99, %97
  %102 = call i32 (ptr, ...) @errmsg_internal(ptr noundef @.str.8)
  call void @errfinish(ptr noundef @.str.1, i32 noundef 1374, ptr noundef @__func__.readtup_cluster)
  br label %103

103:                                              ; preds = %101, %99, %97
  unreachable

104:                                              ; No predecessors!
  br label %105

105:                                              ; preds = %104
  br label %106

106:                                              ; preds = %105, %91
  br label %107

107:                                              ; preds = %106
  br label %108

108:                                              ; preds = %107
  br label %109

109:                                              ; preds = %108, %84
  %110 = load ptr, ptr %12, align 8
  %111 = load ptr, ptr %6, align 8
  %112 = getelementptr inbounds nuw %struct.SortTuple, ptr %111, i32 0, i32 0
  store ptr %110, ptr %112, align 8
  %113 = load ptr, ptr %9, align 8
  %114 = getelementptr inbounds nuw %struct.TuplesortPublic, ptr %113, i32 0, i32 9
  %115 = load i8, ptr %114, align 8, !range !4, !noundef !5
  %116 = trunc i8 %115 to i1
  br i1 %116, label %117, label %134

117:                                              ; preds = %109
  %118 = load ptr, ptr %12, align 8
  %119 = load ptr, ptr %10, align 8
  %120 = getelementptr inbounds nuw %struct.TuplesortClusterArg, ptr %119, i32 0, i32 1
  %121 = load ptr, ptr %120, align 8
  %122 = getelementptr inbounds nuw %struct.IndexInfo, ptr %121, i32 0, i32 3
  %123 = getelementptr inbounds [32 x i16], ptr %122, i64 0, i64 0
  %124 = load i16, ptr %123, align 4
  %125 = sext i16 %124 to i32
  %126 = load ptr, ptr %10, align 8
  %127 = getelementptr inbounds nuw %struct.TuplesortClusterArg, ptr %126, i32 0, i32 0
  %128 = load ptr, ptr %127, align 8
  %129 = load ptr, ptr %6, align 8
  %130 = getelementptr inbounds nuw %struct.SortTuple, ptr %129, i32 0, i32 2
  %131 = call i64 @heap_getattr(ptr noundef %118, i32 noundef %125, ptr noundef %128, ptr noundef %130)
  %132 = load ptr, ptr %6, align 8
  %133 = getelementptr inbounds nuw %struct.SortTuple, ptr %132, i32 0, i32 1
  store i64 %131, ptr %133, align 8
  br label %134

134:                                              ; preds = %117, %109
  call void @llvm.lifetime.end.p0(i64 8, ptr %12) #6
  call void @llvm.lifetime.end.p0(i64 4, ptr %11) #6
  call void @llvm.lifetime.end.p0(i64 8, ptr %10) #6
  call void @llvm.lifetime.end.p0(i64 8, ptr %9) #6
  ret void
}