; Function Attrs: nounwind uwtable
define internal void @readtup_cluster(ptr noundef %0, ptr noundef %1, ptr noundef %2, i32 noundef %3) #0 {
  %5 = alloca i32, align 4
  store i32 %3, ptr %5, align 4
  %6 = getelementptr inbounds nuw i8, ptr %0, i64 104
  %7 = load ptr, ptr %6, align 8
  %8 = add i32 %3, -10
  %9 = zext i32 %8 to i64
  %10 = add nuw nsw i64 %9, 24
  %11 = tail call ptr @tuplesort_readtup_alloc(ptr noundef %0, i64 noundef %10) #12
  %12 = getelementptr inbounds nuw i8, ptr %11, i64 24
  %13 = getelementptr inbounds nuw i8, ptr %11, i64 16
  store ptr %12, ptr %13, align 8
  store i32 %8, ptr %11, align 8
  %14 = getelementptr inbounds nuw i8, ptr %11, i64 4
  %15 = tail call i64 @LogicalTapeRead(ptr noundef %2, ptr noundef nonnull %14, i64 noundef 6) #12
  %.not = icmp eq i64 %15, 6
  br i1 %.not, label %19, label %16

16:                                               ; preds = %4
  %17 = tail call zeroext i1 @errstart_cold(i32 noundef 21, ptr noundef null) #13
  tail call void @llvm.assume(i1 %17)
  %18 = tail call i32 (ptr, ...) @errmsg_internal(ptr noundef nonnull @.str.8) #12
  tail call void @errfinish(ptr noundef nonnull @.str.1, i32 noundef 1368, ptr noundef nonnull @__func__.readtup_cluster) #12
  unreachable

19:                                               ; preds = %4
  %20 = getelementptr inbounds nuw i8, ptr %11, i64 12
  store i32 0, ptr %20, align 4
  %21 = load ptr, ptr %13, align 8
  %22 = load i32, ptr %11, align 8
  %23 = zext i32 %22 to i64
  %24 = tail call i64 @LogicalTapeRead(ptr noundef %2, ptr noundef %21, i64 noundef %23) #12
  %25 = load i32, ptr %11, align 8
  %26 = zext i32 %25 to i64
  %.not24 = icmp eq i64 %24, %26
  br i1 %.not24, label %30, label %27

27:                                               ; preds = %19
  %28 = tail call zeroext i1 @errstart_cold(i32 noundef 21, ptr noundef null) #13
  tail call void @llvm.assume(i1 %28)
  %29 = tail call i32 (ptr, ...) @errmsg_internal(ptr noundef nonnull @.str.8) #12
  tail call void @errfinish(ptr noundef nonnull @.str.1, i32 noundef 1372, ptr noundef nonnull @__func__.readtup_cluster) #12
  unreachable

30:                                               ; preds = %19
  %31 = getelementptr inbounds nuw i8, ptr %0, i64 96
  %32 = load i32, ptr %31, align 8
  %33 = and i32 %32, 1
  %.not25 = icmp eq i32 %33, 0
  br i1 %.not25, label %39, label %34

34:                                               ; preds = %30
  %35 = call i64 @LogicalTapeRead(ptr noundef %2, ptr noundef nonnull %5, i64 noundef 4) #12
  %.not26 = icmp eq i64 %35, 4
  br i1 %.not26, label %39, label %36

36:                                               ; preds = %34
  %37 = call zeroext i1 @errstart_cold(i32 noundef 21, ptr noundef null) #13
  call void @llvm.assume(i1 %37)
  %38 = call i32 (ptr, ...) @errmsg_internal(ptr noundef nonnull @.str.8) #12
  call void @errfinish(ptr noundef nonnull @.str.1, i32 noundef 1374, ptr noundef nonnull @__func__.readtup_cluster) #12
  unreachable

39:                                               ; preds = %34, %30
  store ptr %11, ptr %1, align 8
  %40 = getelementptr inbounds nuw i8, ptr %0, i64 72
  %41 = load i8, ptr %40, align 8, !range !4, !noundef !5
  %42 = trunc nuw i8 %41 to i1
  br i1 %42, label %43, label %53

43:                                               ; preds = %39
  %44 = getelementptr inbounds nuw i8, ptr %7, i64 8
  %45 = load ptr, ptr %44, align 8
  %46 = getelementptr inbounds nuw i8, ptr %45, i64 12
  %47 = load i16, ptr %46, align 4
  %48 = sext i16 %47 to i32
  %49 = load ptr, ptr %7, align 8
  %50 = getelementptr inbounds nuw i8, ptr %1, i64 16
  %51 = call fastcc i64 @heap_getattr(ptr noundef nonnull %11, i32 noundef %48, ptr noundef %49, ptr noundef nonnull %50)
  %52 = getelementptr inbounds nuw i8, ptr %1, i64 8
  store i64 %51, ptr %52, align 8
  br label %53

53:                                               ; preds = %43, %39
  ret void
}